target datalayout = "e-m:e-p270:32:32-p271:32:32-p272:64:64-i64:64-i128:128-f80:128-n8:16:32:64-S128"
target triple = "x86_64-pc-linux-gnu"

%"class.(anonymous namespace)::bv_size_reduction_tactic" = type <{ %class.tactic.base, [4 x i8], ptr, %class.bv_util, %class.obj_map, %class.obj_map, %class.obj_map, %class.obj_map, %class.ref, %class.ref, %class.scoped_ptr, i8, [7 x i8] }>
%class.tactic.base = type <{ %"class.user_propagator::core", i32 }>
%"class.user_propagator::core" = type { ptr }
%class.bv_util = type { %class.bv_recognizers, ptr, ptr }
%class.bv_recognizers = type { i32 }
%class.obj_map = type { %class.core_hashtable }
%class.core_hashtable = type <{ ptr, i32, i32, i32, [4 x i8] }>
%class.ref = type { ptr }
%class.scoped_ptr = type { ptr }
%class.rational = type { %class.mpq }
%class.mpq = type { %class.mpz, %class.mpz }
%class.mpz = type { i32, i8, ptr }

@_ZN8rational13g_mpq_managerE = external global ptr, align 8

; Function Attrs: inlinehint mustprogress nounwind uwtable
define linkonce_odr hidden noundef zeroext i1 @_ZNK3mpz8is_smallEv(ptr noundef nonnull align 8 dereferenceable(16) %0) #5 comdat align 2 {
  %2 = alloca ptr, align 8
  store ptr %0, ptr %2, align 8, !tbaa !126
  %3 = load ptr, ptr %2, align 8
  %4 = getelementptr inbounds nuw %class.mpz, ptr %3, i32 0, i32 1
  %5 = load i8, ptr %4, align 4
  %6 = and i8 %5, 1
  %7 = zext i8 %6 to i32
  %8 = icmp eq i32 %7, 0
  ret i1 %8
}

; Function Attrs: mustprogress nounwind uwtable
define linkonce_odr hidden void @_ZN3mpz3setEi(ptr noundef nonnull align 8 dereferenceable(16) %0, i32 noundef %1) #6 comdat align 2 {
  %3 = alloca ptr, align 8
  %4 = alloca i32, align 4
  store ptr %0, ptr %3, align 8, !tbaa !126
  store i32 %1, ptr %4, align 4, !tbaa !99
  %5 = load ptr, ptr %3, align 8
  %6 = load i32, ptr %4, align 4, !tbaa !99
  %7 = getelementptr inbounds nuw %class.mpz, ptr %5, i32 0, i32 0
  store i32 %6, ptr %7, align 8, !tbaa !128
  %8 = getelementptr inbounds nuw %class.mpz, ptr %5, i32 0, i32 1
  %9 = load i8, ptr %8, align 4
  %10 = and i8 %9, -2
  %11 = or i8 %10, 0
  store i8 %11, ptr %8, align 4
  ret void
}

; Function Attrs: inlinehint mustprogress nounwind uwtable
define linkonce_odr hidden noundef i32 @_ZNK3mpz5valueEv(ptr noundef nonnull align 8 dereferenceable(16) %0) #5 comdat align 2 {
  %2 = alloca ptr, align 8
  store ptr %0, ptr %2, align 8, !tbaa !126
  %3 = load ptr, ptr %2, align 8
  %4 = getelementptr inbounds nuw %class.mpz, ptr %3, i32 0, i32 0
  %5 = load i32, ptr %4, align 8, !tbaa !128
  ret i32 %5
}

; Function Attrs: mustprogress uwtable
define linkonce_odr hidden noundef zeroext i1 @_ZN11mpz_managerILb1EE8is_smallERK3mpz(ptr noundef nonnull align 8 dereferenceable(16) %0) #4 comdat align 2 {
  %2 = alloca ptr, align 8
  store ptr %0, ptr %2, align 8, !tbaa !126
  %3 = load ptr, ptr %2, align 8, !tbaa !126
  %4 = call noundef zeroext i1 @_ZNK3mpz8is_smallEv(ptr noundef nonnull align 8 dereferenceable(16) %3)
  ret i1 %4
}

; Function Attrs: mustprogress uwtable
define linkonce_odr hidden noundef zeroext i1 @_ZN11mpz_managerILb1EE6is_oneERK3mpz(ptr noundef nonnull align 8 dereferenceable(16) %0) #4 comdat align 2 {
  %2 = alloca ptr, align 8
  store ptr %0, ptr %2, align 8, !tbaa !126
  %3 = load ptr, ptr %2, align 8, !tbaa !126
  %4 = call noundef zeroext i1 @_ZN11mpz_managerILb1EE8is_smallERK3mpz(ptr noundef nonnull align 8 dereferenceable(16) %3)
  br i1 %4, label %5, label %9

5:                                                ; preds = %1
  %6 = load ptr, ptr %2, align 8, !tbaa !126
  %7 = call noundef i32 @_ZNK3mpz5valueEv(ptr noundef nonnull align 8 dereferenceable(16) %6)
  %8 = icmp eq i32 %7, 1
  br label %9

9:                                                ; preds = %5, %1
  %10 = phi i1 [ false, %1 ], [ %8, %5 ]
  ret i1 %10
}

; Function Attrs: mustprogress uwtable
define linkonce_odr hidden void @_ZN11mpz_managerILb1EE3setER3mpzRKS1_(ptr noundef nonnull align 8 dereferenceable(600) %0, ptr noundef nonnull align 8 dereferenceable(16) %1, ptr noundef nonnull align 8 dereferenceable(16) %2) #4 comdat align 2 {
  %4 = alloca ptr, align 8
  %5 = alloca ptr, align 8
  %6 = alloca ptr, align 8
  store ptr %0, ptr %4, align 8, !tbaa !290
  store ptr %1, ptr %5, align 8, !tbaa !126
  store ptr %2, ptr %6, align 8, !tbaa !126
  %7 = load ptr, ptr %4, align 8
  %8 = load ptr, ptr %6, align 8, !tbaa !126
  %9 = call noundef zeroext i1 @_ZN11mpz_managerILb1EE8is_smallERK3mpz(ptr noundef nonnull align 8 dereferenceable(16) %8)
  br i1 %9, label %10, label %14

10:                                               ; preds = %3
  %11 = load ptr, ptr %5, align 8, !tbaa !126
  %12 = load ptr, ptr %6, align 8, !tbaa !126
  %13 = call noundef i32 @_ZNK3mpz5valueEv(ptr noundef nonnull align 8 dereferenceable(16) %12)
  call void @_ZN3mpz3setEi(ptr noundef nonnull align 8 dereferenceable(16) %11, i32 noundef %13)
  br label %17

14:                                               ; preds = %3
  %15 = load ptr, ptr %5, align 8, !tbaa !126
  %16 = load ptr, ptr %6, align 8, !tbaa !126
  call void @_ZN11mpz_managerILb1EE7big_setER3mpzRKS1_(ptr noundef nonnull align 8 dereferenceable(600) %7, ptr noundef nonnull align 8 dereferenceable(16) %15, ptr noundef nonnull align 8 dereferenceable(16) %16)
  br label %17

17:                                               ; preds = %14, %10
  ret void
}

; Function Attrs: mustprogress uwtable
define linkonce_odr hidden noundef zeroext i1 @_ZN11mpz_managerILb1EE2ltERK3mpzS3_(ptr noundef nonnull align 8 dereferenceable(600) %0, ptr noundef nonnull align 8 dereferenceable(16) %1, ptr noundef nonnull align 8 dereferenceable(16) %2) #4 comdat align 2 {
  %4 = alloca i1, align 1
  %5 = alloca ptr, align 8
  %6 = alloca ptr, align 8
  %7 = alloca ptr, align 8
  store ptr %0, ptr %5, align 8, !tbaa !290
  store ptr %1, ptr %6, align 8, !tbaa !126
  store ptr %2, ptr %7, align 8, !tbaa !126
  %8 = load ptr, ptr %5, align 8
  %9 = load ptr, ptr %6, align 8, !tbaa !126
  %10 = call noundef zeroext i1 @_ZN11mpz_managerILb1EE8is_smallERK3mpz(ptr noundef nonnull align 8 dereferenceable(16) %9)
  br i1 %10, label %11, label %20

11:                                               ; preds = %3
  %12 = load ptr, ptr %7, align 8, !tbaa !126
  %13 = call noundef zeroext i1 @_ZN11mpz_managerILb1EE8is_smallERK3mpz(ptr noundef nonnull align 8 dereferenceable(16) %12)
  br i1 %13, label %14, label %20

14:                                               ; preds = %11
  %15 = load ptr, ptr %6, align 8, !tbaa !126
  %16 = call noundef i32 @_ZNK3mpz5valueEv(ptr noundef nonnull align 8 dereferenceable(16) %15)
  %17 = load ptr, ptr %7, align 8, !tbaa !126
  %18 = call noundef i32 @_ZNK3mpz5valueEv(ptr noundef nonnull align 8 dereferenceable(16) %17)
  %19 = icmp slt i32 %16, %18
  store i1 %19, ptr %4, align 1
  br label %25

20:                                               ; preds = %11, %3
  %21 = load ptr, ptr %6, align 8, !tbaa !126
  %22 = load ptr, ptr %7, align 8, !tbaa !126
  %23 = call noundef i32 @_ZN11mpz_managerILb1EE11big_compareERK3mpzS3_(ptr noundef nonnull align 8 dereferenceable(600) %8, ptr noundef nonnull align 8 dereferenceable(16) %21, ptr noundef nonnull align 8 dereferenceable(16) %22)
  %24 = icmp slt i32 %23, 0
  store i1 %24, ptr %4, align 1
  br label %25

25:                                               ; preds = %20, %14
  %26 = load i1, ptr %4, align 1
  ret i1 %26
}

; Function Attrs: mustprogress uwtable
define linkonce_odr hidden noundef zeroext i1 @_ZN11mpq_managerILb1EE6is_oneERK3mpz(ptr noundef nonnull align 8 dereferenceable(16) %0) #4 comdat align 2 {
  %2 = alloca ptr, align 8
  store ptr %0, ptr %2, align 8, !tbaa !126
  %3 = load ptr, ptr %2, align 8, !tbaa !126
  %4 = call noundef zeroext i1 @_ZN11mpz_managerILb1EE6is_oneERK3mpz(ptr noundef nonnull align 8 dereferenceable(16) %3)
  ret i1 %4
}

; Function Attrs: mustprogress uwtable
define linkonce_odr hidden void @_ZN11mpq_managerILb1EE3setER3mpzRKS1_(ptr noundef nonnull align 8 dereferenceable(728) %0, ptr noundef nonnull align 8 dereferenceable(16) %1, ptr noundef nonnull align 8 dereferenceable(16) %2) #4 comdat align 2 {
  %4 = alloca ptr, align 8
  %5 = alloca ptr, align 8
  %6 = alloca ptr, align 8
  store ptr %0, ptr %4, align 8, !tbaa !131
  store ptr %1, ptr %5, align 8, !tbaa !126
  store ptr %2, ptr %6, align 8, !tbaa !126
  %7 = load ptr, ptr %4, align 8
  %8 = load ptr, ptr %5, align 8, !tbaa !126
  %9 = load ptr, ptr %6, align 8, !tbaa !126
  call void @_ZN11mpz_managerILb1EE3setER3mpzRKS1_(ptr noundef nonnull align 8 dereferenceable(600) %7, ptr noundef nonnull align 8 dereferenceable(16) %8, ptr noundef nonnull align 8 dereferenceable(16) %9)
  ret void
}

; Function Attrs: mustprogress uwtable
define linkonce_odr hidden noundef zeroext i1 @_ZN11mpq_managerILb1EE2ltERK3mpzS3_(ptr noundef nonnull align 8 dereferenceable(728) %0, ptr noundef nonnull align 8 dereferenceable(16) %1, ptr noundef nonnull align 8 dereferenceable(16) %2) #4 comdat align 2 {
  %4 = alloca ptr, align 8
  %5 = alloca ptr, align 8
  %6 = alloca ptr, align 8
  store ptr %0, ptr %4, align 8, !tbaa !131
  store ptr %1, ptr %5, align 8, !tbaa !126
  store ptr %2, ptr %6, align 8, !tbaa !126
  %7 = load ptr, ptr %4, align 8
  %8 = load ptr, ptr %5, align 8, !tbaa !126
  %9 = load ptr, ptr %6, align 8, !tbaa !126
  %10 = call noundef zeroext i1 @_ZN11mpz_managerILb1EE2ltERK3mpzS3_(ptr noundef nonnull align 8 dereferenceable(600) %7, ptr noundef nonnull align 8 dereferenceable(16) %8, ptr noundef nonnull align 8 dereferenceable(16) %9)
  ret i1 %10
}

; Function Attrs: mustprogress uwtable
define linkonce_odr hidden noundef zeroext i1 @_ZN11mpq_managerILb1EE6is_intERK3mpq(ptr noundef nonnull align 8 dereferenceable(32) %0) #4 comdat align 2 {
  %2 = alloca ptr, align 8
  store ptr %0, ptr %2, align 8, !tbaa !124
  %3 = load ptr, ptr %2, align 8, !tbaa !124
  %4 = getelementptr inbounds nuw %class.mpq, ptr %3, i32 0, i32 1
  %5 = call noundef zeroext i1 @_ZN11mpq_managerILb1EE6is_oneERK3mpz(ptr noundef nonnull align 8 dereferenceable(16) %4)
  ret i1 %5
}

; Function Attrs: mustprogress uwtable
define linkonce_odr hidden void @_ZN11mpq_managerILb1EE3setER3mpqRKS1_(ptr noundef nonnull align 8 dereferenceable(728) %0, ptr noundef nonnull align 8 dereferenceable(32) %1, ptr noundef nonnull align 8 dereferenceable(32) %2) #4 comdat align 2 {
  %4 = alloca ptr, align 8
  %5 = alloca ptr, align 8
  %6 = alloca ptr, align 8
  store ptr %0, ptr %4, align 8, !tbaa !131
  store ptr %1, ptr %5, align 8, !tbaa !124
  store ptr %2, ptr %6, align 8, !tbaa !124
  %7 = load ptr, ptr %4, align 8
  %8 = load ptr, ptr %5, align 8, !tbaa !124
  %9 = getelementptr inbounds nuw %class.mpq, ptr %8, i32 0, i32 0
  %10 = load ptr, ptr %6, align 8, !tbaa !124
  %11 = getelementptr inbounds nuw %class.mpq, ptr %10, i32 0, i32 0
  call void @_ZN11mpq_managerILb1EE3setER3mpzRKS1_(ptr noundef nonnull align 8 dereferenceable(728) %7, ptr noundef nonnull align 8 dereferenceable(16) %9, ptr noundef nonnull align 8 dereferenceable(16) %11)
  %12 = load ptr, ptr %5, align 8, !tbaa !124
  %13 = getelementptr inbounds nuw %class.mpq, ptr %12, i32 0, i32 1
  %14 = load ptr, ptr %6, align 8, !tbaa !124
  %15 = getelementptr inbounds nuw %class.mpq, ptr %14, i32 0, i32 1
  call void @_ZN11mpq_managerILb1EE3setER3mpzRKS1_(ptr noundef nonnull align 8 dereferenceable(728) %7, ptr noundef nonnull align 8 dereferenceable(16) %13, ptr noundef nonnull align 8 dereferenceable(16) %15)
  ret void
}

; Function Attrs: mustprogress uwtable
define linkonce_odr hidden noundef zeroext i1 @_ZN11mpq_managerILb1EE2ltERK3mpqS3_(ptr noundef nonnull align 8 dereferenceable(728) %0, ptr noundef nonnull align 8 dereferenceable(32) %1, ptr noundef nonnull align 8 dereferenceable(32) %2) #4 comdat align 2 {
  %4 = alloca i1, align 1
  %5 = alloca ptr, align 8
  %6 = alloca ptr, align 8
  %7 = alloca ptr, align 8
  store ptr %0, ptr %5, align 8, !tbaa !131
  store ptr %1, ptr %6, align 8, !tbaa !124
  store ptr %2, ptr %7, align 8, !tbaa !124
  %8 = load ptr, ptr %5, align 8
  %9 = load ptr, ptr %6, align 8, !tbaa !124
  %10 = call noundef zeroext i1 @_ZN11mpq_managerILb1EE6is_intERK3mpq(ptr noundef nonnull align 8 dereferenceable(32) %9)
  br i1 %10, label %11, label %20

11:                                               ; preds = %3
  %12 = load ptr, ptr %7, align 8, !tbaa !124
  %13 = call noundef zeroext i1 @_ZN11mpq_managerILb1EE6is_intERK3mpq(ptr noundef nonnull align 8 dereferenceable(32) %12)
  br i1 %13, label %14, label %20

14:                                               ; preds = %11
  %15 = load ptr, ptr %6, align 8, !tbaa !124
  %16 = getelementptr inbounds nuw %class.mpq, ptr %15, i32 0, i32 0
  %17 = load ptr, ptr %7, align 8, !tbaa !124
  %18 = getelementptr inbounds nuw %class.mpq, ptr %17, i32 0, i32 0
  %19 = call noundef zeroext i1 @_ZN11mpq_managerILb1EE2ltERK3mpzS3_(ptr noundef nonnull align 8 dereferenceable(728) %8, ptr noundef nonnull align 8 dereferenceable(16) %16, ptr noundef nonnull align 8 dereferenceable(16) %18)
  store i1 %19, ptr %4, align 1
  br label %24

20:                                               ; preds = %11, %3
  %21 = load ptr, ptr %6, align 8, !tbaa !124
  %22 = load ptr, ptr %7, align 8, !tbaa !124
  %23 = call noundef zeroext i1 @_ZN11mpq_managerILb1EE6rat_ltERK3mpqS3_(ptr noundef nonnull align 8 dereferenceable(728) %8, ptr noundef nonnull align 8 dereferenceable(32) %21, ptr noundef nonnull align 8 dereferenceable(32) %22)
  store i1 %23, ptr %4, align 1
  br label %24

24:                                               ; preds = %20, %14
  %25 = load i1, ptr %4, align 1
  ret i1 %25
}

; Function Attrs: mustprogress nounwind uwtable
define linkonce_odr hidden noundef nonnull align 8 dereferenceable(728) ptr @_ZN8rational1mEv() #6 comdat align 2 {
  %1 = load ptr, ptr @_ZN8rational13g_mpq_managerE, align 8, !tbaa !131
  ret ptr %1
}

; Function Attrs: mustprogress uwtable
define linkonce_odr hidden noundef nonnull align 8 dereferenceable(32) ptr @_ZN8rationalaSERKS_(ptr noundef nonnull align 8 dereferenceable(32) %0, ptr noundef nonnull align 8 dereferenceable(32) %1) #4 comdat align 2 {
  %3 = alloca ptr, align 8
  %4 = alloca ptr, align 8
  store ptr %0, ptr %3, align 8, !tbaa !122
  store ptr %1, ptr %4, align 8, !tbaa !122
  %5 = load ptr, ptr %3, align 8
  %6 = call noundef nonnull align 8 dereferenceable(728) ptr @_ZN8rational1mEv()
  %7 = getelementptr inbounds nuw %class.rational, ptr %5, i32 0, i32 0
  %8 = load ptr, ptr %4, align 8, !tbaa !122
  %9 = getelementptr inbounds nuw %class.rational, ptr %8, i32 0, i32 0
  call void @_ZN11mpq_managerILb1EE3setER3mpqRKS1_(ptr noundef nonnull align 8 dereferenceable(728) %6, ptr noundef nonnull align 8 dereferenceable(32) %7, ptr noundef nonnull align 8 dereferenceable(32) %9)
  ret ptr %5
}

; Function Attrs: inlinehint mustprogress uwtable
define linkonce_odr hidden noundef zeroext i1 @_ZltRK8rationalS1_(ptr noundef nonnull align 8 dereferenceable(32) %0, ptr noundef nonnull align 8 dereferenceable(32) %1) #10 comdat {
  %3 = alloca ptr, align 8
  %4 = alloca ptr, align 8
  store ptr %0, ptr %3, align 8, !tbaa !122
  store ptr %1, ptr %4, align 8, !tbaa !122
  %5 = call noundef nonnull align 8 dereferenceable(728) ptr @_ZN8rational1mEv()
  %6 = load ptr, ptr %3, align 8, !tbaa !122
  %7 = getelementptr inbounds nuw %class.rational, ptr %6, i32 0, i32 0
  %8 = load ptr, ptr %4, align 8, !tbaa !122
  %9 = getelementptr inbounds nuw %class.rational, ptr %8, i32 0, i32 0
  %10 = call noundef zeroext i1 @_ZN11mpq_managerILb1EE2ltERK3mpqS3_(ptr noundef nonnull align 8 dereferenceable(728) %5, ptr noundef nonnull align 8 dereferenceable(32) %7, ptr noundef nonnull align 8 dereferenceable(32) %9)
  ret i1 %10
}

; Function Attrs: mustprogress uwtable
define internal void @_ZN12_GLOBAL__N_124bv_size_reduction_tactic19update_signed_lowerEP3appRK8rational(ptr noundef nonnull align 8 dereferenceable(169) %0, ptr noundef %1, ptr noundef nonnull align 8 dereferenceable(32) %2) #4 align 2 {
  %4 = alloca ptr, align 8
  %5 = alloca ptr, align 8
  %6 = alloca ptr, align 8
  %7 = alloca ptr, align 8
  store ptr %0, ptr %4, align 8, !tbaa !10
  store ptr %1, ptr %5, align 8, !tbaa !161
  store ptr %2, ptr %6, align 8, !tbaa !122
  %8 = load ptr, ptr %4, align 8
  call void @llvm.lifetime.start.p0(i64 8, ptr %7) #3
  %9 = getelementptr inbounds nuw %"class.(anonymous namespace)::bv_size_reduction_tactic", ptr %8, i32 0, i32 4
  %10 = load ptr, ptr %5, align 8, !tbaa !161
  %11 = load ptr, ptr %6, align 8, !tbaa !122
  %12 = call noundef nonnull align 8 dereferenceable(32) ptr @_ZN7obj_mapI3app8rationalE19insert_if_not_thereEPS0_RKS1_(ptr noundef nonnull align 8 dereferenceable(24) %9, ptr noundef %10, ptr noundef nonnull align 8 dereferenceable(32) %11)
  store ptr %12, ptr %7, align 8, !tbaa !122
  %13 = load ptr, ptr %7, align 8, !tbaa !122
  %14 = load ptr, ptr %6, align 8, !tbaa !122
  %15 = call noundef zeroext i1 @_ZltRK8rationalS1_(ptr noundef nonnull align 8 dereferenceable(32) %13, ptr noundef nonnull align 8 dereferenceable(32) %14)
  br i1 %15, label %16, label %20

16:                                               ; preds = %3
  %17 = load ptr, ptr %6, align 8, !tbaa !122
  %18 = load ptr, ptr %7, align 8, !tbaa !122
  %19 = call noundef nonnull align 8 dereferenceable(32) ptr @_ZN8rationalaSERKS_(ptr noundef nonnull align 8 dereferenceable(32) %18, ptr noundef nonnull align 8 dereferenceable(32) %17)
  br label %20

20:                                               ; preds = %16, %3
  call void @llvm.lifetime.end.p0(i64 8, ptr %7) #3
  ret void
}